target datalayout = "e-m:e-p270:32:32-p271:32:32-p272:64:64-i64:64-i128:128-f80:128-n8:16:32:64-S128"
target triple = "x86_64-pc-linux-gnu"

%class.LIR_Opr = type { i64 }
%class.LIRAccess = type { ptr, i64, %class.LIRAddressOpr, %class.LIRAddressOpr, i8, %class.LIR_Opr, ptr, ptr }
%class.LIRAddressOpr = type { ptr, %class.LIR_Opr }

; Function Attrs: mustprogress nounwind uwtable
define linkonce_odr hidden i64 @_ZNK9LIRAccess13resolved_addrEv(ptr noundef nonnull align 8 dereferenceable(80) %0) #1 comdat align 2 {
  %2 = alloca %class.LIR_Opr, align 8
  %3 = alloca ptr, align 8
  store ptr %0, ptr %3, align 8
  %4 = load ptr, ptr %3, align 8
  %5 = getelementptr inbounds %class.LIRAccess, ptr %4, i32 0, i32 5
  call void @llvm.memcpy.p0.p0.i64(ptr align 8 %2, ptr align 8 %5, i64 8, i1 false)
  %6 = getelementptr inbounds %class.LIR_Opr, ptr %2, i32 0, i32 0
  %7 = load i64, ptr %6, align 8
  ret i64 %7
}

; Function Attrs: mustprogress nounwind uwtable
define linkonce_odr hidden noundef zeroext i8 @_ZNK9LIRAccess4typeEv(ptr noundef nonnull align 8 dereferenceable(80) %0) #1 comdat align 2 {
  %2 = alloca ptr, align 8
  store ptr %0, ptr %2, align 8
  %3 = load ptr, ptr %2, align 8
  %4 = getelementptr inbounds %class.LIRAccess, ptr %3, i32 0, i32 4
  %5 = load i8, ptr %4, align 8
  ret i8 %5
}

; Function Attrs: mustprogress nounwind uwtable
define linkonce_odr hidden noundef ptr @_ZNK9LIRAccess3genEv(ptr noundef nonnull align 8 dereferenceable(80) %0) #1 comdat align 2 {
  %2 = alloca ptr, align 8
  store ptr %0, ptr %2, align 8
  %3 = load ptr, ptr %2, align 8
  %4 = getelementptr inbounds %class.LIRAccess, ptr %3, i32 0, i32 0
  %5 = load ptr, ptr %4, align 8
  ret ptr %5
}

; Function Attrs: mustprogress nounwind uwtable
define hidden i64 @_ZN12BarrierSetC122atomic_add_at_resolvedER9LIRAccessR7LIRItem(ptr noundef nonnull align 8 dereferenceable(8) %0, ptr noundef nonnull align 8 dereferenceable(80) %1, ptr noundef nonnull align 8 dereferenceable(40) %2) unnamed_addr #1 align 2 {
  %4 = alloca %class.LIR_Opr, align 8
  %5 = alloca ptr, align 8
  %6 = alloca ptr, align 8
  %7 = alloca ptr, align 8
  %8 = alloca ptr, align 8
  %9 = alloca %class.LIR_Opr, align 8
  store ptr %0, ptr %5, align 8
  store ptr %1, ptr %6, align 8
  store ptr %2, ptr %7, align 8
  %10 = load ptr, ptr %6, align 8
  %11 = call noundef ptr @_ZNK9LIRAccess3genEv(ptr noundef nonnull align 8 dereferenceable(80) %10)
  store ptr %11, ptr %8, align 8
  %12 = load ptr, ptr %8, align 8
  %13 = load ptr, ptr %6, align 8
  %14 = call noundef zeroext i8 @_ZNK9LIRAccess4typeEv(ptr noundef nonnull align 8 dereferenceable(80) %13)
  %15 = load ptr, ptr %6, align 8
  %16 = call i64 @_ZNK9LIRAccess13resolved_addrEv(ptr noundef nonnull align 8 dereferenceable(80) %15)
  %17 = getelementptr inbounds %class.LIR_Opr, ptr %9, i32 0, i32 0
  store i64 %16, ptr %17, align 8
  %18 = load ptr, ptr %7, align 8
  %19 = getelementptr inbounds %class.LIR_Opr, ptr %9, i32 0, i32 0
  %20 = load i64, ptr %19, align 8
  %21 = call i64 @_ZN12LIRGenerator10atomic_addE9BasicType7LIR_OprR7LIRItem(ptr noundef nonnull align 8 dereferenceable(232) %12, i8 noundef zeroext %14, i64 %20, ptr noundef nonnull align 8 dereferenceable(40) %18)
  %22 = getelementptr inbounds %class.LIR_Opr, ptr %4, i32 0, i32 0
  store i64 %21, ptr %22, align 8
  %23 = getelementptr inbounds %class.LIR_Opr, ptr %4, i32 0, i32 0
  %24 = load i64, ptr %23, align 8
  ret i64 %24
}