; Function Attrs: mustprogress nounwind uwtable
define hidden i64 @_ZN12BarrierSetC122atomic_add_at_resolvedER9LIRAccessR7LIRItem(ptr nocapture nonnull readnone align 8 %0, ptr nocapture noundef nonnull readonly align 8 dereferenceable(80) %1, ptr noundef nonnull align 8 dereferenceable(40) %2) unnamed_addr #0 align 2 {
  %4 = load ptr, ptr %1, align 8
  %5 = getelementptr inbounds i8, ptr %1, i64 48
  %6 = load i8, ptr %5, align 8
  %7 = getelementptr inbounds i8, ptr %1, i64 56
  %.sroa.0.0.copyload.i = load i64, ptr %7, align 8
  %8 = tail call i64 @_ZN12LIRGenerator10atomic_addE9BasicType7LIR_OprR7LIRItem(ptr noundef nonnull align 8 dereferenceable(232) %4, i8 noundef zeroext %6, i64 %.sroa.0.0.copyload.i, ptr noundef nonnull align 8 dereferenceable(40) %2) #5
  ret i64 %8
}